(itask
Task
p0
(dp1
S'notes'
p2
S'wake it bitch'
p3
sS'title'
p4
S'wake up'
p5
sb.(itask
Task
p0
(dp1
S'notes'
p2
S'put it in your mouth'
p3
sS'title'
p4
S'eat breakfast'
p5
sb.(itask
Task
p0
(dp1
S'notes'
p2
S'sleepy'
p3
sS'title'
p4
S'go to sleep'
p5
sb.